target datalayout = "e-m:e-p270:32:32-p271:32:32-p272:64:64-i64:64-i128:128-f80:128-n8:16:32:64-S128"
target triple = "x86_64-pc-linux-gnu"

%"class.glslang::HlslTokenStream" = type <{ ptr, %"struct.glslang::HlslToken", ptr, %"class.glslang::TVector", %"class.glslang::TVector.0", %"class.glslang::TVector.4", [2 x %"struct.glslang::HlslToken"], i32, [4 x i8], [2 x %"struct.glslang::HlslToken"], i32, [4 x i8] }>
%"struct.glslang::HlslToken" = type { %"struct.glslang::TSourceLoc", i32, %union.anon }
%"struct.glslang::TSourceLoc" = type { ptr, i32, i32, i32 }
%union.anon = type { ptr }
%"class.glslang::TVector" = type { %"class.std::vector" }
%"class.std::vector" = type { %"struct.std::_Vector_base" }
%"struct.std::_Vector_base" = type { %"struct.std::_Vector_base<const glslang::TVector<glslang::HlslToken> *, glslang::pool_allocator<const glslang::TVector<glslang::HlslToken> *>>::_Vector_impl" }
%"struct.std::_Vector_base<const glslang::TVector<glslang::HlslToken> *, glslang::pool_allocator<const glslang::TVector<glslang::HlslToken> *>>::_Vector_impl" = type { %"class.glslang::pool_allocator", %"struct.std::_Vector_base<const glslang::TVector<glslang::HlslToken> *, glslang::pool_allocator<const glslang::TVector<glslang::HlslToken> *>>::_Vector_impl_data" }
%"class.glslang::pool_allocator" = type { ptr }
%"struct.std::_Vector_base<const glslang::TVector<glslang::HlslToken> *, glslang::pool_allocator<const glslang::TVector<glslang::HlslToken> *>>::_Vector_impl_data" = type { ptr, ptr, ptr }
%"class.glslang::TVector.0" = type { %"class.std::vector.1" }
%"class.std::vector.1" = type { %"struct.std::_Vector_base.2" }
%"struct.std::_Vector_base.2" = type { %"struct.std::_Vector_base<int, glslang::pool_allocator<int>>::_Vector_impl" }
%"struct.std::_Vector_base<int, glslang::pool_allocator<int>>::_Vector_impl" = type { %"class.glslang::pool_allocator.3", %"struct.std::_Vector_base<int, glslang::pool_allocator<int>>::_Vector_impl_data" }
%"class.glslang::pool_allocator.3" = type { ptr }
%"struct.std::_Vector_base<int, glslang::pool_allocator<int>>::_Vector_impl_data" = type { ptr, ptr, ptr }
%"class.glslang::TVector.4" = type { %"class.std::vector.5" }
%"class.std::vector.5" = type { %"struct.std::_Vector_base.6" }
%"struct.std::_Vector_base.6" = type { %"struct.std::_Vector_base<glslang::HlslToken, glslang::pool_allocator<glslang::HlslToken>>::_Vector_impl" }
%"struct.std::_Vector_base<glslang::HlslToken, glslang::pool_allocator<glslang::HlslToken>>::_Vector_impl" = type { %"class.glslang::pool_allocator.7", %"struct.std::_Vector_base<glslang::HlslToken, glslang::pool_allocator<glslang::HlslToken>>::_Vector_impl_data" }
%"class.glslang::pool_allocator.7" = type { ptr }
%"struct.std::_Vector_base<glslang::HlslToken, glslang::pool_allocator<glslang::HlslToken>>::_Vector_impl_data" = type { ptr, ptr, ptr }
%"class.__gnu_cxx::__normal_iterator" = type { ptr }

; Function Attrs: mustprogress nounwind uwtable
define linkonce_odr void @_ZN7glslang14pool_allocatorINS_9HlslTokenEE7destroyEPS1_(ptr noundef nonnull align 8 dereferenceable(8) %0, ptr noundef %1) #0 comdat align 2 {
  %3 = alloca ptr, align 8
  %4 = alloca ptr, align 8
  store ptr %0, ptr %3, align 8
  store ptr %1, ptr %4, align 8
  ret void
}

; Function Attrs: mustprogress nounwind uwtable
define linkonce_odr void @_ZN7glslang14pool_allocatorIiE7destroyEPi(ptr noundef nonnull align 8 dereferenceable(8) %0, ptr noundef %1) #0 comdat align 2 {
  %3 = alloca ptr, align 8
  %4 = alloca ptr, align 8
  store ptr %0, ptr %3, align 8
  store ptr %1, ptr %4, align 8
  ret void
}

; Function Attrs: mustprogress nounwind uwtable
define linkonce_odr void @_ZN7glslang14pool_allocatorIPKNS_7TVectorINS_9HlslTokenEEEE7destroyEPS5_(ptr noundef nonnull align 8 dereferenceable(8) %0, ptr noundef %1) #0 comdat align 2 {
  %3 = alloca ptr, align 8
  %4 = alloca ptr, align 8
  store ptr %0, ptr %3, align 8
  store ptr %1, ptr %4, align 8
  ret void
}

; Function Attrs: mustprogress nounwind uwtable
define linkonce_odr void @_ZNSt16allocator_traitsIN7glslang14pool_allocatorINS0_9HlslTokenEEEE10_S_destroyIS3_S2_EEDTcldtfp_7destroyfp0_EERT_PT0_i(ptr noundef nonnull align 8 dereferenceable(8) %0, ptr noundef %1, i32 noundef %2) #0 comdat align 2 {
  %4 = alloca ptr, align 8
  %5 = alloca ptr, align 8
  %6 = alloca i32, align 4
  store ptr %0, ptr %4, align 8
  store ptr %1, ptr %5, align 8
  store i32 %2, ptr %6, align 4
  %7 = load ptr, ptr %4, align 8
  %8 = load ptr, ptr %5, align 8
  call void @_ZN7glslang14pool_allocatorINS_9HlslTokenEE7destroyEPS1_(ptr noundef nonnull align 8 dereferenceable(8) %7, ptr noundef %8)
  ret void
}

; Function Attrs: mustprogress nounwind uwtable
define linkonce_odr void @_ZN9__gnu_cxx17__normal_iteratorIPN7glslang9HlslTokenESt6vectorIS2_NS1_14pool_allocatorIS2_EEEEC2ERKS3_(ptr noundef nonnull align 8 dereferenceable(8) %0, ptr noundef nonnull align 8 dereferenceable(8) %1) unnamed_addr #0 comdat align 2 {
  %3 = alloca ptr, align 8
  %4 = alloca ptr, align 8
  store ptr %0, ptr %3, align 8
  store ptr %1, ptr %4, align 8
  %5 = load ptr, ptr %3, align 8
  %6 = getelementptr inbounds %"class.__gnu_cxx::__normal_iterator", ptr %5, i32 0, i32 0
  %7 = load ptr, ptr %4, align 8
  %8 = load ptr, ptr %7, align 8
  store ptr %8, ptr %6, align 8
  ret void
}

; Function Attrs: mustprogress nounwind uwtable
define linkonce_odr void @_ZNSt16allocator_traitsIN7glslang14pool_allocatorIiEEE10_S_destroyIS2_iEEDTcldtfp_7destroyfp0_EERT_PT0_i(ptr noundef nonnull align 8 dereferenceable(8) %0, ptr noundef %1, i32 noundef %2) #0 comdat align 2 {
  %4 = alloca ptr, align 8
  %5 = alloca ptr, align 8
  %6 = alloca i32, align 4
  store ptr %0, ptr %4, align 8
  store ptr %1, ptr %5, align 8
  store i32 %2, ptr %6, align 4
  %7 = load ptr, ptr %4, align 8
  %8 = load ptr, ptr %5, align 8
  call void @_ZN7glslang14pool_allocatorIiE7destroyEPi(ptr noundef nonnull align 8 dereferenceable(8) %7, ptr noundef %8)
  ret void
}

; Function Attrs: mustprogress nounwind uwtable
define linkonce_odr void @_ZNSt16allocator_traitsIN7glslang14pool_allocatorIPKNS0_7TVectorINS0_9HlslTokenEEEEEE10_S_destroyIS7_S6_EEDTcldtfp_7destroyfp0_EERT_PT0_i(ptr noundef nonnull align 8 dereferenceable(8) %0, ptr noundef %1, i32 noundef %2) #0 comdat align 2 {
  %4 = alloca ptr, align 8
  %5 = alloca ptr, align 8
  %6 = alloca i32, align 4
  store ptr %0, ptr %4, align 8
  store ptr %1, ptr %5, align 8
  store i32 %2, ptr %6, align 4
  %7 = load ptr, ptr %4, align 8
  %8 = load ptr, ptr %5, align 8
  call void @_ZN7glslang14pool_allocatorIPKNS_7TVectorINS_9HlslTokenEEEE7destroyEPS5_(ptr noundef nonnull align 8 dereferenceable(8) %7, ptr noundef %8)
  ret void
}

; Function Attrs: mustprogress nounwind uwtable
define linkonce_odr void @_ZNSt16allocator_traitsIN7glslang14pool_allocatorINS0_9HlslTokenEEEE7destroyIS2_EEvRS3_PT_(ptr noundef nonnull align 8 dereferenceable(8) %0, ptr noundef %1) #0 comdat align 2 {
  %3 = alloca ptr, align 8
  %4 = alloca ptr, align 8
  store ptr %0, ptr %3, align 8
  store ptr %1, ptr %4, align 8
  %5 = load ptr, ptr %3, align 8
  %6 = load ptr, ptr %4, align 8
  call void @_ZNSt16allocator_traitsIN7glslang14pool_allocatorINS0_9HlslTokenEEEE10_S_destroyIS3_S2_EEDTcldtfp_7destroyfp0_EERT_PT0_i(ptr noundef nonnull align 8 dereferenceable(8) %5, ptr noundef %6, i32 noundef 0)
  ret void
}

; Function Attrs: mustprogress nounwind uwtable
define linkonce_odr noundef nonnull align 8 dereferenceable(40) ptr @_ZNK9__gnu_cxx17__normal_iteratorIPN7glslang9HlslTokenESt6vectorIS2_NS1_14pool_allocatorIS2_EEEEdeEv(ptr noundef nonnull align 8 dereferenceable(8) %0) #0 comdat align 2 {
  %2 = alloca ptr, align 8
  store ptr %0, ptr %2, align 8
  %3 = load ptr, ptr %2, align 8
  %4 = getelementptr inbounds %"class.__gnu_cxx::__normal_iterator", ptr %3, i32 0, i32 0
  %5 = load ptr, ptr %4, align 8
  ret ptr %5
}

; Function Attrs: mustprogress nounwind uwtable
define linkonce_odr ptr @_ZNK9__gnu_cxx17__normal_iteratorIPN7glslang9HlslTokenESt6vectorIS2_NS1_14pool_allocatorIS2_EEEEmiEl(ptr noundef nonnull align 8 dereferenceable(8) %0, i64 noundef %1) #0 comdat align 2 {
  %3 = alloca %"class.__gnu_cxx::__normal_iterator", align 8
  %4 = alloca ptr, align 8
  %5 = alloca i64, align 8
  %6 = alloca ptr, align 8
  store ptr %0, ptr %4, align 8
  store i64 %1, ptr %5, align 8
  %7 = load ptr, ptr %4, align 8
  %8 = getelementptr inbounds %"class.__gnu_cxx::__normal_iterator", ptr %7, i32 0, i32 0
  %9 = load ptr, ptr %8, align 8
  %10 = load i64, ptr %5, align 8
  %11 = sub i64 0, %10
  %12 = getelementptr inbounds %"struct.glslang::HlslToken", ptr %9, i64 %11
  store ptr %12, ptr %6, align 8
  call void @_ZN9__gnu_cxx17__normal_iteratorIPN7glslang9HlslTokenESt6vectorIS2_NS1_14pool_allocatorIS2_EEEEC2ERKS3_(ptr noundef nonnull align 8 dereferenceable(8) %3, ptr noundef nonnull align 8 dereferenceable(8) %6) #4
  %13 = getelementptr inbounds %"class.__gnu_cxx::__normal_iterator", ptr %3, i32 0, i32 0
  %14 = load ptr, ptr %13, align 8
  ret ptr %14
}

; Function Attrs: mustprogress nounwind uwtable
define linkonce_odr ptr @_ZNSt6vectorIN7glslang9HlslTokenENS0_14pool_allocatorIS1_EEE3endEv(ptr noundef nonnull align 8 dereferenceable(32) %0) #0 comdat align 2 {
  %2 = alloca %"class.__gnu_cxx::__normal_iterator", align 8
  %3 = alloca ptr, align 8
  store ptr %0, ptr %3, align 8
  %4 = load ptr, ptr %3, align 8
  %5 = getelementptr inbounds %"struct.std::_Vector_base.6", ptr %4, i32 0, i32 0
  %6 = getelementptr inbounds i8, ptr %5, i64 8
  %7 = getelementptr inbounds %"struct.std::_Vector_base<glslang::HlslToken, glslang::pool_allocator<glslang::HlslToken>>::_Vector_impl_data", ptr %6, i32 0, i32 1
  call void @_ZN9__gnu_cxx17__normal_iteratorIPN7glslang9HlslTokenESt6vectorIS2_NS1_14pool_allocatorIS2_EEEEC2ERKS3_(ptr noundef nonnull align 8 dereferenceable(8) %2, ptr noundef nonnull align 8 dereferenceable(8) %7) #4
  %8 = getelementptr inbounds %"class.__gnu_cxx::__normal_iterator", ptr %2, i32 0, i32 0
  %9 = load ptr, ptr %8, align 8
  ret ptr %9
}

; Function Attrs: mustprogress nounwind uwtable
define linkonce_odr void @_ZNSt16allocator_traitsIN7glslang14pool_allocatorIiEEE7destroyIiEEvRS2_PT_(ptr noundef nonnull align 8 dereferenceable(8) %0, ptr noundef %1) #0 comdat align 2 {
  %3 = alloca ptr, align 8
  %4 = alloca ptr, align 8
  store ptr %0, ptr %3, align 8
  store ptr %1, ptr %4, align 8
  %5 = load ptr, ptr %3, align 8
  %6 = load ptr, ptr %4, align 8
  call void @_ZNSt16allocator_traitsIN7glslang14pool_allocatorIiEEE10_S_destroyIS2_iEEDTcldtfp_7destroyfp0_EERT_PT0_i(ptr noundef nonnull align 8 dereferenceable(8) %5, ptr noundef %6, i32 noundef 0)
  ret void
}

; Function Attrs: mustprogress nounwind uwtable
define linkonce_odr void @_ZNSt16allocator_traitsIN7glslang14pool_allocatorIPKNS0_7TVectorINS0_9HlslTokenEEEEEE7destroyIS6_EEvRS7_PT_(ptr noundef nonnull align 8 dereferenceable(8) %0, ptr noundef %1) #0 comdat align 2 {
  %3 = alloca ptr, align 8
  %4 = alloca ptr, align 8
  store ptr %0, ptr %3, align 8
  store ptr %1, ptr %4, align 8
  %5 = load ptr, ptr %3, align 8
  %6 = load ptr, ptr %4, align 8
  call void @_ZNSt16allocator_traitsIN7glslang14pool_allocatorIPKNS0_7TVectorINS0_9HlslTokenEEEEEE10_S_destroyIS7_S6_EEDTcldtfp_7destroyfp0_EERT_PT0_i(ptr noundef nonnull align 8 dereferenceable(8) %5, ptr noundef %6, i32 noundef 0)
  ret void
}

; Function Attrs: mustprogress nounwind uwtable
define linkonce_odr void @_ZNSt6vectorIN7glslang9HlslTokenENS0_14pool_allocatorIS1_EEE8pop_backEv(ptr noundef nonnull align 8 dereferenceable(32) %0) #0 comdat align 2 {
  %2 = alloca ptr, align 8
  store ptr %0, ptr %2, align 8
  %3 = load ptr, ptr %2, align 8
  %4 = getelementptr inbounds %"struct.std::_Vector_base.6", ptr %3, i32 0, i32 0
  %5 = getelementptr inbounds i8, ptr %4, i64 8
  %6 = getelementptr inbounds %"struct.std::_Vector_base<glslang::HlslToken, glslang::pool_allocator<glslang::HlslToken>>::_Vector_impl_data", ptr %5, i32 0, i32 1
  %7 = load ptr, ptr %6, align 8
  %8 = getelementptr inbounds %"struct.glslang::HlslToken", ptr %7, i32 -1
  store ptr %8, ptr %6, align 8
  %9 = getelementptr inbounds %"struct.std::_Vector_base.6", ptr %3, i32 0, i32 0
  %10 = getelementptr inbounds %"struct.std::_Vector_base.6", ptr %3, i32 0, i32 0
  %11 = getelementptr inbounds i8, ptr %10, i64 8
  %12 = getelementptr inbounds %"struct.std::_Vector_base<glslang::HlslToken, glslang::pool_allocator<glslang::HlslToken>>::_Vector_impl_data", ptr %11, i32 0, i32 1
  %13 = load ptr, ptr %12, align 8
  call void @_ZNSt16allocator_traitsIN7glslang14pool_allocatorINS0_9HlslTokenEEEE7destroyIS2_EEvRS3_PT_(ptr noundef nonnull align 8 dereferenceable(8) %9, ptr noundef %13)
  ret void
}

; Function Attrs: mustprogress nounwind uwtable
define linkonce_odr noundef nonnull align 8 dereferenceable(40) ptr @_ZNSt6vectorIN7glslang9HlslTokenENS0_14pool_allocatorIS1_EEE4backEv(ptr noundef nonnull align 8 dereferenceable(32) %0) #0 comdat align 2 {
  %2 = alloca ptr, align 8
  %3 = alloca %"class.__gnu_cxx::__normal_iterator", align 8
  %4 = alloca %"class.__gnu_cxx::__normal_iterator", align 8
  store ptr %0, ptr %2, align 8
  %5 = load ptr, ptr %2, align 8
  %6 = call ptr @_ZNSt6vectorIN7glslang9HlslTokenENS0_14pool_allocatorIS1_EEE3endEv(ptr noundef nonnull align 8 dereferenceable(32) %5) #4
  %7 = getelementptr inbounds %"class.__gnu_cxx::__normal_iterator", ptr %4, i32 0, i32 0
  store ptr %6, ptr %7, align 8
  %8 = call ptr @_ZNK9__gnu_cxx17__normal_iteratorIPN7glslang9HlslTokenESt6vectorIS2_NS1_14pool_allocatorIS2_EEEEmiEl(ptr noundef nonnull align 8 dereferenceable(8) %4, i64 noundef 1) #4
  %9 = getelementptr inbounds %"class.__gnu_cxx::__normal_iterator", ptr %3, i32 0, i32 0
  store ptr %8, ptr %9, align 8
  %10 = call noundef nonnull align 8 dereferenceable(40) ptr @_ZNK9__gnu_cxx17__normal_iteratorIPN7glslang9HlslTokenESt6vectorIS2_NS1_14pool_allocatorIS2_EEEEdeEv(ptr noundef nonnull align 8 dereferenceable(8) %3) #4
  ret ptr %10
}

; Function Attrs: mustprogress nounwind uwtable
define linkonce_odr void @_ZNSt6vectorIiN7glslang14pool_allocatorIiEEE8pop_backEv(ptr noundef nonnull align 8 dereferenceable(32) %0) #0 comdat align 2 {
  %2 = alloca ptr, align 8
  store ptr %0, ptr %2, align 8
  %3 = load ptr, ptr %2, align 8
  %4 = getelementptr inbounds %"struct.std::_Vector_base.2", ptr %3, i32 0, i32 0
  %5 = getelementptr inbounds i8, ptr %4, i64 8
  %6 = getelementptr inbounds %"struct.std::_Vector_base<int, glslang::pool_allocator<int>>::_Vector_impl_data", ptr %5, i32 0, i32 1
  %7 = load ptr, ptr %6, align 8
  %8 = getelementptr inbounds i32, ptr %7, i32 -1
  store ptr %8, ptr %6, align 8
  %9 = getelementptr inbounds %"struct.std::_Vector_base.2", ptr %3, i32 0, i32 0
  %10 = getelementptr inbounds %"struct.std::_Vector_base.2", ptr %3, i32 0, i32 0
  %11 = getelementptr inbounds i8, ptr %10, i64 8
  %12 = getelementptr inbounds %"struct.std::_Vector_base<int, glslang::pool_allocator<int>>::_Vector_impl_data", ptr %11, i32 0, i32 1
  %13 = load ptr, ptr %12, align 8
  call void @_ZNSt16allocator_traitsIN7glslang14pool_allocatorIiEEE7destroyIiEEvRS2_PT_(ptr noundef nonnull align 8 dereferenceable(8) %9, ptr noundef %13)
  ret void
}

; Function Attrs: mustprogress nounwind uwtable
define linkonce_odr void @_ZNSt6vectorIPKN7glslang7TVectorINS0_9HlslTokenEEENS0_14pool_allocatorIS5_EEE8pop_backEv(ptr noundef nonnull align 8 dereferenceable(32) %0) #0 comdat align 2 {
  %2 = alloca ptr, align 8
  store ptr %0, ptr %2, align 8
  %3 = load ptr, ptr %2, align 8
  %4 = getelementptr inbounds %"struct.std::_Vector_base", ptr %3, i32 0, i32 0
  %5 = getelementptr inbounds i8, ptr %4, i64 8
  %6 = getelementptr inbounds %"struct.std::_Vector_base<const glslang::TVector<glslang::HlslToken> *, glslang::pool_allocator<const glslang::TVector<glslang::HlslToken> *>>::_Vector_impl_data", ptr %5, i32 0, i32 1
  %7 = load ptr, ptr %6, align 8
  %8 = getelementptr inbounds ptr, ptr %7, i32 -1
  store ptr %8, ptr %6, align 8
  %9 = getelementptr inbounds %"struct.std::_Vector_base", ptr %3, i32 0, i32 0
  %10 = getelementptr inbounds %"struct.std::_Vector_base", ptr %3, i32 0, i32 0
  %11 = getelementptr inbounds i8, ptr %10, i64 8
  %12 = getelementptr inbounds %"struct.std::_Vector_base<const glslang::TVector<glslang::HlslToken> *, glslang::pool_allocator<const glslang::TVector<glslang::HlslToken> *>>::_Vector_impl_data", ptr %11, i32 0, i32 1
  %13 = load ptr, ptr %12, align 8
  call void @_ZNSt16allocator_traitsIN7glslang14pool_allocatorIPKNS0_7TVectorINS0_9HlslTokenEEEEEE7destroyIS6_EEvRS7_PT_(ptr noundef nonnull align 8 dereferenceable(8) %9, ptr noundef %13)
  ret void
}

; Function Attrs: mustprogress nounwind uwtable
define void @_ZN7glslang15HlslTokenStream14popTokenStreamEv(ptr noundef nonnull align 8 dereferenceable(324) %0) #0 align 2 {
  %2 = alloca ptr, align 8
  store ptr %0, ptr %2, align 8
  %3 = load ptr, ptr %2, align 8
  %4 = getelementptr inbounds %"class.glslang::HlslTokenStream", ptr %3, i32 0, i32 3
  call void @_ZNSt6vectorIPKN7glslang7TVectorINS0_9HlslTokenEEENS0_14pool_allocatorIS5_EEE8pop_backEv(ptr noundef nonnull align 8 dereferenceable(32) %4) #4
  %5 = getelementptr inbounds %"class.glslang::HlslTokenStream", ptr %3, i32 0, i32 4
  call void @_ZNSt6vectorIiN7glslang14pool_allocatorIiEEE8pop_backEv(ptr noundef nonnull align 8 dereferenceable(32) %5) #4
  %6 = getelementptr inbounds %"class.glslang::HlslTokenStream", ptr %3, i32 0, i32 5
  %7 = call noundef nonnull align 8 dereferenceable(40) ptr @_ZNSt6vectorIN7glslang9HlslTokenENS0_14pool_allocatorIS1_EEE4backEv(ptr noundef nonnull align 8 dereferenceable(32) %6) #4
  %8 = getelementptr inbounds %"class.glslang::HlslTokenStream", ptr %3, i32 0, i32 1
  call void @llvm.memcpy.p0.p0.i64(ptr align 8 %8, ptr align 8 %7, i64 40, i1 false)
  %9 = getelementptr inbounds %"class.glslang::HlslTokenStream", ptr %3, i32 0, i32 5
  call void @_ZNSt6vectorIN7glslang9HlslTokenENS0_14pool_allocatorIS1_EEE8pop_backEv(ptr noundef nonnull align 8 dereferenceable(32) %9) #4
  ret void
}